target datalayout = "e-m:e-p270:32:32-p271:32:32-p272:64:64-i64:64-i128:128-f80:128-n8:16:32:64-S128"
target triple = "x86_64-pc-linux-gnu"

%struct._address = type { i32, i32, ptr, ptr }
%struct.nstime_t = type { i64, i32 }
%struct._voip_calls_info = type { i32, i32, ptr, ptr, ptr, ptr, ptr, %struct._address, i32, i32, ptr, ptr, i16, ptr, %struct.nstime_t, ptr, %struct.nstime_t }

; Function Attrs: mustprogress nounwind uwtable
define noundef i32 @_ZN15VoipCallsDialog15compareCallNumsEPKvS1_(ptr noundef %0, ptr noundef %1) #5 align 2 {
  %3 = alloca ptr, align 8
  %4 = alloca ptr, align 8
  %5 = alloca ptr, align 8
  %6 = alloca ptr, align 8
  store ptr %0, ptr %3, align 8
  store ptr %1, ptr %4, align 8
  %7 = load ptr, ptr %3, align 8
  store ptr %7, ptr %5, align 8
  %8 = load ptr, ptr %4, align 8
  store ptr %8, ptr %6, align 8
  %9 = load ptr, ptr %5, align 8
  %10 = getelementptr inbounds %struct._voip_calls_info, ptr %9, i32 0, i32 12
  %11 = load i16, ptr %10, align 8
  %12 = zext i16 %11 to i32
  %13 = load ptr, ptr %6, align 8
  %14 = getelementptr inbounds %struct._voip_calls_info, ptr %13, i32 0, i32 12
  %15 = load i16, ptr %14, align 8
  %16 = zext i16 %15 to i32
  %17 = icmp ne i32 %12, %16
  %18 = zext i1 %17 to i32
  ret i32 %18
}