; Function Attrs: mustprogress nofree norecurse nosync nounwind willreturn memory(argmem: read) uwtable
define noundef i32 @_ZN15VoipCallsDialog15compareCallNumsEPKvS1_(ptr nocapture noundef readonly %0, ptr nocapture noundef readonly %1) #10 align 2 {
  %3 = getelementptr inbounds i8, ptr %0, i64 96
  %4 = load i16, ptr %3, align 8
  %5 = getelementptr inbounds i8, ptr %1, i64 96
  %6 = load i16, ptr %5, align 8
  %7 = icmp ne i16 %4, %6
  %8 = zext i1 %7 to i32
  ret i32 %8
}